target datalayout = "e-m:e-p270:32:32-p271:32:32-p272:64:64-i64:64-i128:128-f80:128-n8:16:32:64-S128"
target triple = "x86_64-unknown-linux-gnu"

%"class.node::MemoryRetainer" = type { ptr }
%struct.ngtcp2_path = type { %struct.ngtcp2_addr, %struct.ngtcp2_addr, ptr }
%struct.ngtcp2_addr = type { ptr, i32 }
%"class.node::SocketAddress" = type { %"class.node::MemoryRetainer", %struct.sockaddr_storage }
%struct.sockaddr_storage = type { i16, [118 x i8], i64 }
%struct.sockaddr = type { i16, [14 x i8] }

; Function Attrs: mustprogress nounwind uwtable
define linkonce_odr dso_local noundef i64 @_ZN4node13SocketAddress9GetLengthEPK8sockaddr(ptr noundef %addr) #4 comdat align 2 {
entry:
  %addr.addr = alloca ptr, align 8
  store ptr %addr, ptr %addr.addr, align 8
  %0 = load ptr, ptr %addr.addr, align 8
  %sa_family = getelementptr inbounds %struct.sockaddr, ptr %0, i32 0, i32 0
  %1 = load i16, ptr %sa_family, align 2
  %conv = zext i16 %1 to i32
  %cmp = icmp eq i32 %conv, 2
  %cond = select i1 %cmp, i64 16, i64 28
  ret i64 %cond
}

; Function Attrs: mustprogress nounwind uwtable
define linkonce_odr dso_local noundef i64 @_ZN4node13SocketAddress9GetLengthEPK16sockaddr_storage(ptr noundef %addr) #4 comdat align 2 {
entry:
  %addr.addr = alloca ptr, align 8
  store ptr %addr, ptr %addr.addr, align 8
  %0 = load ptr, ptr %addr.addr, align 8
  %call = call noundef i64 @_ZN4node13SocketAddress9GetLengthEPK8sockaddr(ptr noundef %0)
  ret i64 %call
}

; Function Attrs: mustprogress nounwind uwtable
define linkonce_odr dso_local noundef i64 @_ZNK4node13SocketAddress6lengthEv(ptr noundef nonnull align 8 dereferenceable(136) %this) #4 comdat align 2 {
entry:
  %this.addr = alloca ptr, align 8
  store ptr %this, ptr %this.addr, align 8
  %this1 = load ptr, ptr %this.addr, align 8
  %address_ = getelementptr inbounds %"class.node::SocketAddress", ptr %this1, i32 0, i32 1
  %call = call noundef i64 @_ZN4node13SocketAddress9GetLengthEPK16sockaddr_storage(ptr noundef %address_)
  ret i64 %call
}

; Function Attrs: mustprogress nounwind uwtable
define linkonce_odr dso_local noundef ptr @_ZNK4node13SocketAddress4dataEv(ptr noundef nonnull align 8 dereferenceable(136) %this) #4 comdat align 2 {
entry:
  %this.addr = alloca ptr, align 8
  store ptr %this, ptr %this.addr, align 8
  %this1 = load ptr, ptr %this.addr, align 8
  %address_ = getelementptr inbounds %"class.node::SocketAddress", ptr %this1, i32 0, i32 1
  ret ptr %address_
}

; Function Attrs: mustprogress nounwind uwtable
define dso_local void @_ZN4node4quic4PathC2ERKNS_13SocketAddressES4_(ptr noundef nonnull align 8 dereferenceable(40) %this, ptr noundef nonnull align 8 dereferenceable(136) %local, ptr noundef nonnull align 8 dereferenceable(136) %remote) unnamed_addr #4 align 2 {
entry:
  %this.addr = alloca ptr, align 8
  %local.addr = alloca ptr, align 8
  %remote.addr = alloca ptr, align 8
  store ptr %this, ptr %this.addr, align 8
  store ptr %local, ptr %local.addr, align 8
  store ptr %remote, ptr %remote.addr, align 8
  %this1 = load ptr, ptr %this.addr, align 8
  %local2 = getelementptr inbounds %struct.ngtcp2_path, ptr %this1, i32 0, i32 0
  %0 = load ptr, ptr %local.addr, align 8
  %call = call noundef ptr @_ZNK4node13SocketAddress4dataEv(ptr noundef nonnull align 8 dereferenceable(136) %0)
  %1 = load ptr, ptr %local.addr, align 8
  %call3 = call noundef i64 @_ZNK4node13SocketAddress6lengthEv(ptr noundef nonnull align 8 dereferenceable(136) %1)
  %conv = trunc i64 %call3 to i32
  %call4 = call ptr @ngtcp2_addr_init(ptr noundef %local2, ptr noundef %call, i32 noundef %conv)
  %remote5 = getelementptr inbounds %struct.ngtcp2_path, ptr %this1, i32 0, i32 1
  %2 = load ptr, ptr %remote.addr, align 8
  %call6 = call noundef ptr @_ZNK4node13SocketAddress4dataEv(ptr noundef nonnull align 8 dereferenceable(136) %2)
  %3 = load ptr, ptr %remote.addr, align 8
  %call7 = call noundef i64 @_ZNK4node13SocketAddress6lengthEv(ptr noundef nonnull align 8 dereferenceable(136) %3)
  %conv8 = trunc i64 %call7 to i32
  %call9 = call ptr @ngtcp2_addr_init(ptr noundef %remote5, ptr noundef %call6, i32 noundef %conv8)
  ret void
}