; Function Attrs: mustprogress nounwind uwtable
define dso_local void @_ZN4node4quic4PathC2ERKNS_13SocketAddressES4_(ptr noundef nonnull align 8 dereferenceable(40) %this, ptr noundef nonnull align 8 dereferenceable(136) %local, ptr noundef nonnull align 8 dereferenceable(136) %remote) unnamed_addr #3 align 2 {
entry:
  %address_.i = getelementptr inbounds i8, ptr %local, i64 8
  %0 = load i16, ptr %address_.i, align 8
  %cmp.i.i.i = icmp eq i16 %0, 2
  %conv = select i1 %cmp.i.i.i, i32 16, i32 28
  %call4 = tail call ptr @ngtcp2_addr_init(ptr noundef nonnull %this, ptr noundef nonnull %address_.i, i32 noundef %conv) #16
  %remote5 = getelementptr inbounds i8, ptr %this, i64 16
  %address_.i4 = getelementptr inbounds i8, ptr %remote, i64 8
  %1 = load i16, ptr %address_.i4, align 8
  %cmp.i.i.i6 = icmp eq i16 %1, 2
  %conv8 = select i1 %cmp.i.i.i6, i32 16, i32 28
  %call9 = tail call ptr @ngtcp2_addr_init(ptr noundef nonnull %remote5, ptr noundef nonnull %address_.i4, i32 noundef %conv8) #16
  ret void
}